; Function Attrs: nounwind uwtable
define zeroext i8 @l_Lean_Server_FileWorker_locationLinksOfInfo___lambda__11(ptr noundef %0, ptr noundef %1) local_unnamed_addr #0 {
  %3 = ptrtoint ptr %1 to i64
  %4 = and i64 %3, 1
  %.not.i = icmp eq i64 %4, 0
  br i1 %.not.i, label %8, label %5

5:                                                ; preds = %2
  %6 = lshr i64 %3, 1
  %7 = trunc i64 %6 to i32
  br label %lean_obj_tag.exit

8:                                                ; preds = %2
  %9 = getelementptr i8, ptr %1, i64 4
  %.val.i = load i32, ptr %9, align 4
  %10 = lshr i32 %.val.i, 24
  br label %lean_obj_tag.exit

lean_obj_tag.exit:                                ; preds = %5, %8
  %.0.i = phi i32 [ %7, %5 ], [ %10, %8 ]
  %11 = icmp eq i32 %.0.i, 1
  br i1 %11, label %12, label %34

12:                                               ; preds = %lean_obj_tag.exit
  %13 = getelementptr inbounds nuw i8, ptr %1, i64 8
  %14 = load ptr, ptr %13, align 8, !tbaa !10
  %15 = getelementptr inbounds nuw i8, ptr %14, i64 32
  %16 = load ptr, ptr %15, align 8, !tbaa !10
  %17 = ptrtoint ptr %16 to i64
  %18 = and i64 %17, 1
  %.not.i13 = icmp eq i64 %18, 0
  br i1 %.not.i13, label %22, label %19

19:                                               ; preds = %12
  %20 = lshr i64 %17, 1
  %21 = trunc i64 %20 to i32
  br label %lean_obj_tag.exit16

22:                                               ; preds = %12
  %23 = getelementptr i8, ptr %16, i64 4
  %.val.i15 = load i32, ptr %23, align 4
  %24 = lshr i32 %.val.i15, 24
  br label %lean_obj_tag.exit16

lean_obj_tag.exit16:                              ; preds = %19, %22
  %.0.i14 = phi i32 [ %21, %19 ], [ %24, %22 ]
  %25 = icmp eq i32 %.0.i14, 1
  br i1 %25, label %26, label %34

26:                                               ; preds = %lean_obj_tag.exit16
  %27 = getelementptr inbounds nuw i8, ptr %14, i64 40
  %28 = load i8, ptr %27, align 1, !tbaa !17
  %29 = icmp eq i8 %28, 0
  br i1 %29, label %34, label %30

30:                                               ; preds = %26
  %31 = getelementptr inbounds nuw i8, ptr %16, i64 8
  %32 = load ptr, ptr %31, align 8, !tbaa !10
  %33 = tail call zeroext i8 @lean_name_eq(ptr noundef %32, ptr noundef %0) #8
  br label %34

34:                                               ; preds = %lean_obj_tag.exit, %26, %30, %lean_obj_tag.exit16
  %.2 = phi i8 [ %33, %30 ], [ 0, %26 ], [ 0, %lean_obj_tag.exit16 ], [ 0, %lean_obj_tag.exit ]
  ret i8 %.2
}